target datalayout = "e-m:e-p270:32:32-p271:32:32-p272:64:64-i64:64-i128:128-f80:128-n8:16:32:64-S128"
target triple = "x86_64-pc-linux-gnu"

@.str.50 = private unnamed_addr constant [1 x i8] zeroinitializer, align 1
@.str.161 = private unnamed_addr constant [15 x i8] c" little-endian\00", align 1
@.str.162 = private unnamed_addr constant [12 x i8] c" big-endian\00", align 1
@.str.163 = private unnamed_addr constant [14 x i8] c" mixed-endian\00", align 1
@.str.164 = private unnamed_addr constant [20 x i8] c" unknown-byte-order\00", align 1
@.str.165 = private unnamed_addr constant [10 x i8] c" unsigned\00", align 1
@.str.166 = private unnamed_addr constant [14 x i8] c" unknown-sign\00", align 1
@.str.167 = private unnamed_addr constant [20 x i8] c"%lu-bit%s%s integer\00", align 1

; Function Attrs: nounwind uwtable
define internal zeroext i1 @print_int_type(ptr noundef %0, i64 noundef %1, i32 noundef %2) #0 {
  %4 = alloca i1, align 1
  %5 = alloca ptr, align 8
  %6 = alloca i64, align 8
  %7 = alloca i32, align 4
  %8 = alloca i32, align 4
  %9 = alloca ptr, align 8
  %10 = alloca i32, align 4
  %11 = alloca ptr, align 8
  %12 = alloca i32, align 4
  store ptr %0, ptr %5, align 8, !tbaa !81
  store i64 %1, ptr %6, align 8, !tbaa !11
  store i32 %2, ptr %7, align 4, !tbaa !4
  call void @llvm.lifetime.start.p0(i64 4, ptr %8) #12
  call void @llvm.lifetime.start.p0(i64 8, ptr %9) #12
  store ptr null, ptr %9, align 8, !tbaa !13
  call void @llvm.lifetime.start.p0(i64 4, ptr %10) #12
  call void @llvm.lifetime.start.p0(i64 8, ptr %11) #12
  store ptr null, ptr %11, align 8, !tbaa !13
  %13 = load i64, ptr %6, align 8, !tbaa !11
  %14 = call i32 @H5Tget_class(i64 noundef %13)
  %15 = icmp ne i32 0, %14
  br i1 %15, label %16, label %17

16:                                               ; preds = %3
  store i1 false, ptr %4, align 1
  store i32 1, ptr %12, align 4
  br label %67

17:                                               ; preds = %3
  %18 = load i64, ptr %6, align 8, !tbaa !11
  %19 = call i64 @H5Tget_size(i64 noundef %18)
  %20 = icmp ugt i64 %19, 1
  br i1 %20, label %21, label %39

21:                                               ; preds = %17
  %22 = load i64, ptr %6, align 8, !tbaa !11
  %23 = call i32 @H5Tget_order(i64 noundef %22)
  store i32 %23, ptr %8, align 4, !tbaa !4
  %24 = load i32, ptr %8, align 4, !tbaa !4
  %25 = icmp eq i32 0, %24
  br i1 %25, label %26, label %27

26:                                               ; preds = %21
  store ptr @.str.161, ptr %9, align 8, !tbaa !13
  br label %38

27:                                               ; preds = %21
  %28 = load i32, ptr %8, align 4, !tbaa !4
  %29 = icmp eq i32 1, %28
  br i1 %29, label %30, label %31

30:                                               ; preds = %27
  store ptr @.str.162, ptr %9, align 8, !tbaa !13
  br label %37

31:                                               ; preds = %27
  %32 = load i32, ptr %8, align 4, !tbaa !4
  %33 = icmp eq i32 2, %32
  br i1 %33, label %34, label %35

34:                                               ; preds = %31
  store ptr @.str.163, ptr %9, align 8, !tbaa !13
  br label %36

35:                                               ; preds = %31
  store ptr @.str.164, ptr %9, align 8, !tbaa !13
  br label %36

36:                                               ; preds = %35, %34
  br label %37

37:                                               ; preds = %36, %30
  br label %38

38:                                               ; preds = %37, %26
  br label %40

39:                                               ; preds = %17
  store ptr @.str.50, ptr %9, align 8, !tbaa !13
  br label %40

40:                                               ; preds = %39, %38
  %41 = load i64, ptr %6, align 8, !tbaa !11
  %42 = call i32 @H5Tget_sign(i64 noundef %41)
  store i32 %42, ptr %10, align 4, !tbaa !4
  %43 = icmp sge i32 %42, 0
  br i1 %43, label %44, label %55

44:                                               ; preds = %40
  %45 = load i32, ptr %10, align 4, !tbaa !4
  %46 = icmp eq i32 0, %45
  br i1 %46, label %47, label %48

47:                                               ; preds = %44
  store ptr @.str.165, ptr %11, align 8, !tbaa !13
  br label %54

48:                                               ; preds = %44
  %49 = load i32, ptr %10, align 4, !tbaa !4
  %50 = icmp eq i32 1, %49
  br i1 %50, label %51, label %52

51:                                               ; preds = %48
  store ptr @.str.50, ptr %11, align 8, !tbaa !13
  br label %53

52:                                               ; preds = %48
  store ptr @.str.166, ptr %11, align 8, !tbaa !13
  br label %53

53:                                               ; preds = %52, %51
  br label %54

54:                                               ; preds = %53, %47
  br label %56

55:                                               ; preds = %40
  store ptr @.str.166, ptr %11, align 8, !tbaa !13
  br label %56

56:                                               ; preds = %55, %54
  %57 = load ptr, ptr %5, align 8, !tbaa !81
  %58 = load i64, ptr %6, align 8, !tbaa !11
  %59 = call i64 @H5Tget_size(i64 noundef %58)
  %60 = mul i64 8, %59
  %61 = load ptr, ptr %9, align 8, !tbaa !13
  %62 = load ptr, ptr %11, align 8, !tbaa !13
  %63 = call ptr (ptr, ptr, ...) @h5tools_str_append(ptr noundef %57, ptr noundef @.str.167, i64 noundef %60, ptr noundef %61, ptr noundef %62)
  %64 = load ptr, ptr %5, align 8, !tbaa !81
  %65 = load i64, ptr %6, align 8, !tbaa !11
  %66 = load i32, ptr %7, align 4, !tbaa !4
  call void @print_precision(ptr noundef %64, i64 noundef %65, i32 noundef %66)
  store i1 true, ptr %4, align 1
  store i32 1, ptr %12, align 4
  br label %67

67:                                               ; preds = %56, %16
  call void @llvm.lifetime.end.p0(i64 8, ptr %11) #12
  call void @llvm.lifetime.end.p0(i64 4, ptr %10) #12
  call void @llvm.lifetime.end.p0(i64 8, ptr %9) #12
  call void @llvm.lifetime.end.p0(i64 4, ptr %8) #12
  %68 = load i1, ptr %4, align 1
  ret i1 %68
}