; Function Attrs: nounwind uwtable
define internal fastcc noundef zeroext i1 @print_int_type(ptr noundef nonnull %0, i64 noundef range(i64 0, -9223372036854775808) %1, i32 noundef %2) unnamed_addr #4 {
  %4 = tail call i32 @H5Tget_class(i64 noundef %1) #20
  %.not = icmp eq i32 %4, 0
  br i1 %.not, label %5, label %18

5:                                                ; preds = %3
  %6 = tail call i64 @H5Tget_size(i64 noundef %1) #20
  %7 = icmp ugt i64 %6, 1
  br i1 %7, label %8, label %12

8:                                                ; preds = %5
  %9 = tail call i32 @H5Tget_order(i64 noundef %1) #20
  %10 = icmp ult i32 %9, 3
  br i1 %10, label %switch.lookup, label %12

switch.lookup:                                    ; preds = %8
  %11 = zext nneg i32 %9 to i64
  %switch.gep = getelementptr inbounds nuw [3 x ptr], ptr @switch.table.print_float_type, i64 0, i64 %11
  %switch.load = load ptr, ptr %switch.gep, align 8
  br label %12

12:                                               ; preds = %8, %switch.lookup, %5
  %.017 = phi ptr [ @.str.50, %5 ], [ %switch.load, %switch.lookup ], [ @.str.164, %8 ]
  %13 = tail call i32 @H5Tget_sign(i64 noundef %1) #20
  %14 = icmp sgt i32 %13, -1
  %switch.selectcmp = icmp eq i32 %13, 1
  %switch.select = select i1 %switch.selectcmp, ptr @.str.50, ptr @.str.166
  %switch.selectcmp20 = icmp eq i32 %13, 0
  %switch.select21 = select i1 %switch.selectcmp20, ptr @.str.165, ptr %switch.select
  %.0 = select i1 %14, ptr %switch.select21, ptr @.str.166
  %15 = tail call i64 @H5Tget_size(i64 noundef %1) #20
  %16 = shl i64 %15, 3
  %17 = tail call ptr (ptr, ptr, ...) @h5tools_str_append(ptr noundef nonnull %0, ptr noundef nonnull @.str.167, i64 noundef %16, ptr noundef nonnull %.017, ptr noundef nonnull %.0) #20
  tail call fastcc void @print_precision(ptr noundef %0, i64 noundef %1, i32 noundef %2)
  br label %18

18:                                               ; preds = %3, %12
  ret i1 %.not
}